target datalayout = "e-m:e-p270:32:32-p271:32:32-p272:64:64-i64:64-i128:128-f80:128-n8:16:32:64-S128"
target triple = "x86_64-pc-linux-gnu"

%struct.object_id = type { [32 x i8], i32 }
%struct.commit = type { %struct.object, i64, ptr, ptr, i32 }
%struct.object = type { i32, %struct.object_id }
%struct.packed_commit_list = type { ptr, i64, i64 }
%struct.compute_generation_info = type { ptr, ptr, ptr, i32, ptr, ptr, ptr }
%struct.commit_list = type { ptr, ptr }

@.str.48 = private unnamed_addr constant [15 x i8] c"commit-graph.c\00", align 1
@.str.55 = private unnamed_addr constant [33 x i8] c"attempting unimplemented version\00", align 1

; Function Attrs: nounwind uwtable
define internal i64 @compute_generation_from_max(ptr noundef %0, i64 noundef %1, i32 noundef %2) #0 {
  %4 = alloca i64, align 8
  %5 = alloca ptr, align 8
  %6 = alloca i64, align 8
  %7 = alloca i32, align 4
  store ptr %0, ptr %5, align 8, !tbaa !52
  store i64 %1, ptr %6, align 8, !tbaa !73
  store i32 %2, ptr %7, align 4, !tbaa !4
  %8 = load i32, ptr %7, align 4, !tbaa !4
  switch i32 %8, label %35 [
    i32 1, label %9
    i32 2, label %16
  ]

9:                                                ; preds = %3
  %10 = load i64, ptr %6, align 8, !tbaa !73
  %11 = icmp ugt i64 %10, 1073741822
  br i1 %11, label %12, label %13

12:                                               ; preds = %9
  store i64 1073741822, ptr %6, align 8, !tbaa !73
  br label %13

13:                                               ; preds = %12, %9
  %14 = load i64, ptr %6, align 8, !tbaa !73
  %15 = add i64 %14, 1
  store i64 %15, ptr %4, align 8
  br label %36

16:                                               ; preds = %3
  %17 = load ptr, ptr %5, align 8, !tbaa !52
  %18 = getelementptr inbounds nuw %struct.commit, ptr %17, i32 0, i32 1
  %19 = load i64, ptr %18, align 8, !tbaa !160
  %20 = icmp ne i64 %19, 0
  br i1 %20, label %21, label %32

21:                                               ; preds = %16
  %22 = load ptr, ptr %5, align 8, !tbaa !52
  %23 = getelementptr inbounds nuw %struct.commit, ptr %22, i32 0, i32 1
  %24 = load i64, ptr %23, align 8, !tbaa !160
  %25 = load i64, ptr %6, align 8, !tbaa !73
  %26 = icmp ugt i64 %24, %25
  br i1 %26, label %27, label %32

27:                                               ; preds = %21
  %28 = load ptr, ptr %5, align 8, !tbaa !52
  %29 = getelementptr inbounds nuw %struct.commit, ptr %28, i32 0, i32 1
  %30 = load i64, ptr %29, align 8, !tbaa !160
  %31 = sub i64 %30, 1
  store i64 %31, ptr %6, align 8, !tbaa !73
  br label %32

32:                                               ; preds = %27, %21, %16
  %33 = load i64, ptr %6, align 8, !tbaa !73
  %34 = add i64 %33, 1
  store i64 %34, ptr %4, align 8
  br label %36

35:                                               ; preds = %3
  call void (ptr, i32, ptr, ...) @BUG_fl(ptr noundef @.str.48, i32 noundef 1616, ptr noundef @.str.55) #13
  unreachable

36:                                               ; preds = %32, %13
  %37 = load i64, ptr %4, align 8
  ret i64 %37
}

; Function Attrs: inlinehint nounwind uwtable
define internal i32 @repo_parse_commit(ptr noundef %0, ptr noundef %1) #5 {
  %3 = alloca ptr, align 8
  %4 = alloca ptr, align 8
  store ptr %0, ptr %3, align 8, !tbaa !8
  store ptr %1, ptr %4, align 8, !tbaa !52
  %5 = load ptr, ptr %3, align 8, !tbaa !8
  %6 = load ptr, ptr %4, align 8, !tbaa !52
  %7 = call i32 @repo_parse_commit_gently(ptr noundef %5, ptr noundef %6, i32 noundef 0)
  ret i32 %7
}

; Function Attrs: nounwind uwtable
define internal void @compute_reachable_generation_numbers(ptr noundef %0, i32 noundef %1) #0 {
  %3 = alloca ptr, align 8
  %4 = alloca i32, align 4
  %5 = alloca i32, align 4
  %6 = alloca ptr, align 8
  %7 = alloca ptr, align 8
  %8 = alloca i64, align 8
  %9 = alloca i32, align 4
  %10 = alloca ptr, align 8
  %11 = alloca ptr, align 8
  %12 = alloca i32, align 4
  %13 = alloca i32, align 4
  store ptr %0, ptr %3, align 8, !tbaa !180
  store i32 %1, ptr %4, align 4, !tbaa !4
  call void @llvm.lifetime.start.p0(i64 4, ptr %5) #12
  call void @llvm.lifetime.start.p0(i64 8, ptr %6) #12
  store ptr null, ptr %6, align 8, !tbaa !182
  store i32 0, ptr %5, align 4, !tbaa !4
  br label %14

14:                                               ; preds = %137, %2
  %15 = load i32, ptr %5, align 4, !tbaa !4
  %16 = sext i32 %15 to i64
  %17 = load ptr, ptr %3, align 8, !tbaa !180
  %18 = getelementptr inbounds nuw %struct.compute_generation_info, ptr %17, i32 0, i32 1
  %19 = load ptr, ptr %18, align 8, !tbaa !174
  %20 = getelementptr inbounds nuw %struct.packed_commit_list, ptr %19, i32 0, i32 1
  %21 = load i64, ptr %20, align 8, !tbaa !169
  %22 = icmp ult i64 %16, %21
  br i1 %22, label %23, label %140

23:                                               ; preds = %14
  call void @llvm.lifetime.start.p0(i64 8, ptr %7) #12
  %24 = load ptr, ptr %3, align 8, !tbaa !180
  %25 = getelementptr inbounds nuw %struct.compute_generation_info, ptr %24, i32 0, i32 1
  %26 = load ptr, ptr %25, align 8, !tbaa !174
  %27 = getelementptr inbounds nuw %struct.packed_commit_list, ptr %26, i32 0, i32 0
  %28 = load ptr, ptr %27, align 8, !tbaa !167
  %29 = load i32, ptr %5, align 4, !tbaa !4
  %30 = sext i32 %29 to i64
  %31 = getelementptr inbounds ptr, ptr %28, i64 %30
  %32 = load ptr, ptr %31, align 8, !tbaa !52
  store ptr %32, ptr %7, align 8, !tbaa !52
  call void @llvm.lifetime.start.p0(i64 8, ptr %8) #12
  %33 = load ptr, ptr %3, align 8, !tbaa !180
  %34 = getelementptr inbounds nuw %struct.compute_generation_info, ptr %33, i32 0, i32 0
  %35 = load ptr, ptr %34, align 8, !tbaa !171
  %36 = load ptr, ptr %7, align 8, !tbaa !52
  %37 = call i32 @repo_parse_commit(ptr noundef %35, ptr noundef %36)
  %38 = load ptr, ptr %3, align 8, !tbaa !180
  %39 = getelementptr inbounds nuw %struct.compute_generation_info, ptr %38, i32 0, i32 4
  %40 = load ptr, ptr %39, align 8, !tbaa !177
  %41 = load ptr, ptr %7, align 8, !tbaa !52
  %42 = load ptr, ptr %3, align 8, !tbaa !180
  %43 = getelementptr inbounds nuw %struct.compute_generation_info, ptr %42, i32 0, i32 6
  %44 = load ptr, ptr %43, align 8, !tbaa !179
  %45 = call i64 %40(ptr noundef %41, ptr noundef %44)
  store i64 %45, ptr %8, align 8, !tbaa !73
  %46 = load ptr, ptr %3, align 8, !tbaa !180
  %47 = getelementptr inbounds nuw %struct.compute_generation_info, ptr %46, i32 0, i32 2
  %48 = load ptr, ptr %47, align 8, !tbaa !175
  %49 = load ptr, ptr %3, align 8, !tbaa !180
  %50 = getelementptr inbounds nuw %struct.compute_generation_info, ptr %49, i32 0, i32 3
  %51 = load i32, ptr %50, align 8, !tbaa !176
  %52 = add nsw i32 %51, 1
  store i32 %52, ptr %50, align 8, !tbaa !176
  %53 = sext i32 %52 to i64
  call void @display_progress(ptr noundef %48, i64 noundef %53)
  %54 = load i64, ptr %8, align 8, !tbaa !73
  %55 = icmp ne i64 %54, 0
  br i1 %55, label %56, label %60

56:                                               ; preds = %23
  %57 = load i64, ptr %8, align 8, !tbaa !73
  %58 = icmp ne i64 %57, 9223372036854775807
  br i1 %58, label %59, label %60

59:                                               ; preds = %56
  store i32 4, ptr %9, align 4
  br label %134

60:                                               ; preds = %56, %23
  %61 = load ptr, ptr %7, align 8, !tbaa !52
  %62 = call ptr @commit_list_insert(ptr noundef %61, ptr noundef %6)
  br label %63

63:                                               ; preds = %132, %60
  %64 = load ptr, ptr %6, align 8, !tbaa !182
  %65 = icmp ne ptr %64, null
  br i1 %65, label %66, label %133

66:                                               ; preds = %63
  call void @llvm.lifetime.start.p0(i64 8, ptr %10) #12
  %67 = load ptr, ptr %6, align 8, !tbaa !182
  %68 = getelementptr inbounds nuw %struct.commit_list, ptr %67, i32 0, i32 0
  %69 = load ptr, ptr %68, align 8, !tbaa !183
  store ptr %69, ptr %10, align 8, !tbaa !52
  call void @llvm.lifetime.start.p0(i64 8, ptr %11) #12
  call void @llvm.lifetime.start.p0(i64 4, ptr %12) #12
  store i32 1, ptr %12, align 4, !tbaa !4
  call void @llvm.lifetime.start.p0(i64 4, ptr %13) #12
  store i32 0, ptr %13, align 4, !tbaa !4
  %70 = load ptr, ptr %10, align 8, !tbaa !52
  %71 = getelementptr inbounds nuw %struct.commit, ptr %70, i32 0, i32 2
  %72 = load ptr, ptr %71, align 8, !tbaa !152
  store ptr %72, ptr %11, align 8, !tbaa !182
  br label %73

73:                                               ; preds = %110, %66
  %74 = load ptr, ptr %11, align 8, !tbaa !182
  %75 = icmp ne ptr %74, null
  br i1 %75, label %76, label %114

76:                                               ; preds = %73
  %77 = load ptr, ptr %3, align 8, !tbaa !180
  %78 = getelementptr inbounds nuw %struct.compute_generation_info, ptr %77, i32 0, i32 0
  %79 = load ptr, ptr %78, align 8, !tbaa !171
  %80 = load ptr, ptr %11, align 8, !tbaa !182
  %81 = getelementptr inbounds nuw %struct.commit_list, ptr %80, i32 0, i32 0
  %82 = load ptr, ptr %81, align 8, !tbaa !183
  %83 = call i32 @repo_parse_commit(ptr noundef %79, ptr noundef %82)
  %84 = load ptr, ptr %3, align 8, !tbaa !180
  %85 = getelementptr inbounds nuw %struct.compute_generation_info, ptr %84, i32 0, i32 4
  %86 = load ptr, ptr %85, align 8, !tbaa !177
  %87 = load ptr, ptr %11, align 8, !tbaa !182
  %88 = getelementptr inbounds nuw %struct.commit_list, ptr %87, i32 0, i32 0
  %89 = load ptr, ptr %88, align 8, !tbaa !183
  %90 = load ptr, ptr %3, align 8, !tbaa !180
  %91 = getelementptr inbounds nuw %struct.compute_generation_info, ptr %90, i32 0, i32 6
  %92 = load ptr, ptr %91, align 8, !tbaa !179
  %93 = call i64 %86(ptr noundef %89, ptr noundef %92)
  store i64 %93, ptr %8, align 8, !tbaa !73
  %94 = load i64, ptr %8, align 8, !tbaa !73
  %95 = icmp eq i64 %94, 0
  br i1 %95, label %96, label %101

96:                                               ; preds = %76
  store i32 0, ptr %12, align 4, !tbaa !4
  %97 = load ptr, ptr %11, align 8, !tbaa !182
  %98 = getelementptr inbounds nuw %struct.commit_list, ptr %97, i32 0, i32 0
  %99 = load ptr, ptr %98, align 8, !tbaa !183
  %100 = call ptr @commit_list_insert(ptr noundef %99, ptr noundef %6)
  br label %114

101:                                              ; preds = %76
  %102 = load i64, ptr %8, align 8, !tbaa !73
  %103 = load i32, ptr %13, align 4, !tbaa !4
  %104 = zext i32 %103 to i64
  %105 = icmp ugt i64 %102, %104
  br i1 %105, label %106, label %109

106:                                              ; preds = %101
  %107 = load i64, ptr %8, align 8, !tbaa !73
  %108 = trunc i64 %107 to i32
  store i32 %108, ptr %13, align 4, !tbaa !4
  br label %109

109:                                              ; preds = %106, %101
  br label %110

110:                                              ; preds = %109
  %111 = load ptr, ptr %11, align 8, !tbaa !182
  %112 = getelementptr inbounds nuw %struct.commit_list, ptr %111, i32 0, i32 1
  %113 = load ptr, ptr %112, align 8, !tbaa !185
  store ptr %113, ptr %11, align 8, !tbaa !182
  br label %73, !llvm.loop !186

114:                                              ; preds = %96, %73
  %115 = load i32, ptr %12, align 4, !tbaa !4
  %116 = icmp ne i32 %115, 0
  br i1 %116, label %117, label %132

117:                                              ; preds = %114
  %118 = call ptr @pop_commit(ptr noundef %6)
  %119 = load ptr, ptr %10, align 8, !tbaa !52
  %120 = load i32, ptr %13, align 4, !tbaa !4
  %121 = zext i32 %120 to i64
  %122 = load i32, ptr %4, align 4, !tbaa !4
  %123 = call i64 @compute_generation_from_max(ptr noundef %119, i64 noundef %121, i32 noundef %122)
  store i64 %123, ptr %8, align 8, !tbaa !73
  %124 = load ptr, ptr %3, align 8, !tbaa !180
  %125 = getelementptr inbounds nuw %struct.compute_generation_info, ptr %124, i32 0, i32 5
  %126 = load ptr, ptr %125, align 8, !tbaa !178
  %127 = load ptr, ptr %10, align 8, !tbaa !52
  %128 = load i64, ptr %8, align 8, !tbaa !73
  %129 = load ptr, ptr %3, align 8, !tbaa !180
  %130 = getelementptr inbounds nuw %struct.compute_generation_info, ptr %129, i32 0, i32 6
  %131 = load ptr, ptr %130, align 8, !tbaa !179
  call void %126(ptr noundef %127, i64 noundef %128, ptr noundef %131)
  br label %132

132:                                              ; preds = %117, %114
  call void @llvm.lifetime.end.p0(i64 4, ptr %13) #12
  call void @llvm.lifetime.end.p0(i64 4, ptr %12) #12
  call void @llvm.lifetime.end.p0(i64 8, ptr %11) #12
  call void @llvm.lifetime.end.p0(i64 8, ptr %10) #12
  br label %63, !llvm.loop !187

133:                                              ; preds = %63
  store i32 0, ptr %9, align 4
  br label %134

134:                                              ; preds = %133, %59
  call void @llvm.lifetime.end.p0(i64 8, ptr %8) #12
  call void @llvm.lifetime.end.p0(i64 8, ptr %7) #12
  %135 = load i32, ptr %9, align 4
  switch i32 %135, label %141 [
    i32 0, label %136
    i32 4, label %137
  ]

136:                                              ; preds = %134
  br label %137

137:                                              ; preds = %136, %134
  %138 = load i32, ptr %5, align 4, !tbaa !4
  %139 = add nsw i32 %138, 1
  store i32 %139, ptr %5, align 4, !tbaa !4
  br label %14, !llvm.loop !188

140:                                              ; preds = %14
  call void @llvm.lifetime.end.p0(i64 8, ptr %6) #12
  call void @llvm.lifetime.end.p0(i64 4, ptr %5) #12
  ret void

141:                                              ; preds = %134
  unreachable
}