; Function Attrs: nounwind uwtable
define internal fastcc void @compute_reachable_generation_numbers(ptr noundef nonnull captures(none) %0, i32 noundef %1) unnamed_addr #0 {
  %3 = alloca ptr, align 8
  call void @llvm.lifetime.start.p0(i64 8, ptr nonnull %3) #24
  store ptr null, ptr %3, align 8, !tbaa !164
  %4 = getelementptr inbounds nuw i8, ptr %0, i64 8
  %5 = load ptr, ptr %4, align 8, !tbaa !160
  %6 = getelementptr inbounds nuw i8, ptr %5, i64 8
  %7 = load i64, ptr %6, align 8, !tbaa !155
  %.not55 = icmp eq i64 %7, 0
  br i1 %.not55, label %._crit_edge, label %.lr.ph54

.lr.ph54:                                         ; preds = %2
  %8 = getelementptr inbounds nuw i8, ptr %0, i64 32
  %9 = getelementptr inbounds nuw i8, ptr %0, i64 48
  %10 = getelementptr inbounds nuw i8, ptr %0, i64 16
  %11 = getelementptr inbounds nuw i8, ptr %0, i64 24
  %12 = getelementptr inbounds nuw i8, ptr %0, i64 40
  br label %13

13:                                               ; preds = %.lr.ph54, %.loopexit
  %indvars.iv = phi i64 [ 0, %.lr.ph54 ], [ %indvars.iv.next, %.loopexit ]
  %14 = phi ptr [ %5, %.lr.ph54 ], [ %60, %.loopexit ]
  %15 = load ptr, ptr %14, align 8, !tbaa !152
  %16 = getelementptr inbounds nuw ptr, ptr %15, i64 %indvars.iv
  %17 = load ptr, ptr %16, align 8, !tbaa !165
  %18 = load ptr, ptr %0, align 8, !tbaa !157
  %19 = call i32 @repo_parse_commit_gently(ptr noundef %18, ptr noundef %17, i32 noundef 0) #24
  %20 = load ptr, ptr %8, align 8, !tbaa !161
  %21 = load ptr, ptr %9, align 8, !tbaa !163
  %22 = call i64 %20(ptr noundef %17, ptr noundef %21) #24
  %23 = load ptr, ptr %10, align 8, !tbaa !167
  %24 = load i32, ptr %11, align 8, !tbaa !168
  %25 = add nsw i32 %24, 1
  store i32 %25, ptr %11, align 8, !tbaa !168
  %26 = sext i32 %25 to i64
  call void @display_progress(ptr noundef %23, i64 noundef %26) #24
  switch i64 %22, label %.loopexit [
    i64 9223372036854775807, label %27
    i64 0, label %27
  ]

27:                                               ; preds = %13, %13
  %28 = call ptr @commit_list_insert(ptr noundef %17, ptr noundef nonnull %3) #24
  %29 = load ptr, ptr %3, align 8, !tbaa !164
  %.not51 = icmp eq ptr %29, null
  br i1 %.not51, label %.loopexit, label %.lr.ph52

.lr.ph52:                                         ; preds = %27, %58
  %30 = phi ptr [ %59, %58 ], [ %29, %27 ]
  %31 = load ptr, ptr %30, align 8, !tbaa !169
  %32 = getelementptr inbounds nuw i8, ptr %31, i64 48
  %.03747 = load ptr, ptr %32, align 8, !tbaa !164
  %.not42.not48 = icmp eq ptr %.03747, null
  br i1 %.not42.not48, label %.critedge, label %.lr.ph

.lr.ph:                                           ; preds = %.lr.ph52, %44
  %.03750 = phi ptr [ %.037, %44 ], [ %.03747, %.lr.ph52 ]
  %.049 = phi i64 [ %spec.select44, %44 ], [ 0, %.lr.ph52 ]
  %33 = load ptr, ptr %0, align 8, !tbaa !157
  %34 = load ptr, ptr %.03750, align 8, !tbaa !169
  %35 = call i32 @repo_parse_commit_gently(ptr noundef %33, ptr noundef %34, i32 noundef 0) #24
  %36 = load ptr, ptr %8, align 8, !tbaa !161
  %37 = load ptr, ptr %.03750, align 8, !tbaa !169
  %38 = load ptr, ptr %9, align 8, !tbaa !163
  %39 = call i64 %36(ptr noundef %37, ptr noundef %38) #24
  %40 = icmp eq i64 %39, 0
  br i1 %40, label %41, label %44

41:                                               ; preds = %.lr.ph
  %42 = load ptr, ptr %.03750, align 8, !tbaa !169
  %43 = call ptr @commit_list_insert(ptr noundef %42, ptr noundef nonnull %3) #24
  br label %58

44:                                               ; preds = %.lr.ph
  %45 = and i64 %.049, 4294967295
  %spec.select44 = call i64 @llvm.umax.i64(i64 %39, i64 %45)
  %46 = getelementptr inbounds nuw i8, ptr %.03750, i64 8
  %.037 = load ptr, ptr %46, align 8, !tbaa !164
  %.not42.not = icmp eq ptr %.037, null
  br i1 %.not42.not, label %.critedge.loopexit, label %.lr.ph, !llvm.loop !171

.critedge.loopexit:                               ; preds = %44
  %47 = and i64 %spec.select44, 4294967295
  br label %.critedge

.critedge:                                        ; preds = %.critedge.loopexit, %.lr.ph52
  %.0.lcssa = phi i64 [ 0, %.lr.ph52 ], [ %47, %.critedge.loopexit ]
  %48 = call ptr @pop_commit(ptr noundef nonnull %3) #24
  switch i32 %1, label %55 [
    i32 1, label %49
    i32 2, label %50
  ]

49:                                               ; preds = %.critedge
  %spec.store.select.i = call i64 @llvm.umin.i64(i64 range(i64 0, 4294967296) %.0.lcssa, i64 1073741822)
  br label %compute_generation_from_max.exit

50:                                               ; preds = %.critedge
  %51 = getelementptr inbounds nuw i8, ptr %31, i64 40
  %52 = load i64, ptr %51, align 8, !tbaa !139
  %53 = icmp ugt i64 %52, %.0.lcssa
  %54 = add i64 %52, -1
  %.08.i = select i1 %53, i64 %54, i64 %.0.lcssa
  br label %compute_generation_from_max.exit

55:                                               ; preds = %.critedge
  call void (ptr, i32, ptr, ...) @BUG_fl(ptr noundef nonnull @.str.48, i32 noundef 1616, ptr noundef nonnull @.str.55) #25
  unreachable

compute_generation_from_max.exit:                 ; preds = %49, %50
  %.0.in.i = phi i64 [ %.08.i, %50 ], [ %spec.store.select.i, %49 ]
  %.0.i = add nuw i64 %.0.in.i, 1
  %56 = load ptr, ptr %12, align 8, !tbaa !162
  %57 = load ptr, ptr %9, align 8, !tbaa !163
  call void %56(ptr noundef %31, i64 noundef %.0.i, ptr noundef %57) #24
  br label %58

58:                                               ; preds = %41, %compute_generation_from_max.exit
  %59 = load ptr, ptr %3, align 8, !tbaa !164
  %.not = icmp eq ptr %59, null
  br i1 %.not, label %.loopexit, label %.lr.ph52, !llvm.loop !172

.loopexit:                                        ; preds = %58, %27, %13
  %indvars.iv.next = add nuw nsw i64 %indvars.iv, 1
  %60 = load ptr, ptr %4, align 8, !tbaa !160
  %61 = getelementptr inbounds nuw i8, ptr %60, i64 8
  %62 = load i64, ptr %61, align 8, !tbaa !155
  %63 = icmp ugt i64 %62, %indvars.iv.next
  br i1 %63, label %13, label %._crit_edge, !llvm.loop !173

._crit_edge:                                      ; preds = %.loopexit, %2
  call void @llvm.lifetime.end.p0(i64 8, ptr nonnull %3) #24
  ret void
}